Certificate:
    Data:
        Version: 3 (0x2)
        Serial Number: 10426936076622365674 (0x90b3eb1e0ec803ea)
    Signature Algorithm: sha256WithRSAEncryption
        Issuer: C=cn, ST=anhui, O=exscv, OU=ca, CN=admin/emailAddress=admin@exscv.com
        Validity
            Not Before: Aug 12 06:58:39 2018 GMT
            Not After : Aug  9 06:58:39 2028 GMT
        Subject: C=cn, ST=anhui, O=exscv, OU=client, CN=client/emailAddress=client@exscv.com
        Subject Public Key Info:
            Public Key Algorithm: rsaEncryption
                Public-Key: (1024 bit)
                Modulus:
                    00:c7:37:9b:7d:e6:6f:35:83:db:73:2b:7d:5e:30:
                    a1:34:f9:67:97:2f:46:8a:35:dd:8f:62:35:91:51:
                    aa:25:57:50:7f:4c:5e:ee:2b:69:2e:6b:c2:18:95:
                    49:0b:36:62:19:09:e9:42:6c:82:76:28:b0:cf:82:
                    92:76:34:6f:7b:c3:e9:27:2c:bf:8b:15:87:94:2b:
                    de:d5:f8:f5:24:85:05:52:26:f1:a0:5e:6d:f0:a8:
                    f8:94:56:41:c0:25:d9:83:a2:fc:d7:63:d9:7f:06:
                    1f:50:13:9c:58:08:5d:be:b5:14:1c:c5:06:a5:9a:
                    2c:05:e7:b4:87:9b:67:89:6f
                Exponent: 65537 (0x10001)
        X509v3 extensions:
            X509v3 Basic Constraints: 
                CA:FALSE
            Netscape Comment: 
                OpenSSL Generated Certificate
            X509v3 Subject Key Identifier: 
                2B:81:4D:76:5C:B1:72:54:27:F8:76:DF:52:F9:3C:44:83:EA:5E:B7
            X509v3 Authority Key Identifier: 
                keyid:5C:59:AE:4F:F1:79:52:94:E6:DF:EC:12:E5:8A:F1:9F:1B:5E:F2:47

    Signature Algorithm: sha256WithRSAEncryption
         2b:1d:a8:da:4f:70:90:d6:90:01:31:6d:fe:e8:3b:19:7f:0c:
         75:ce:6b:00:9a:db:bd:e9:45:74:23:0a:72:c1:4a:78:f5:a9:
         fd:d6:3e:96:21:1f:66:09:b8:23:06:6d:5c:7f:8c:f4:47:53:
         80:6c:f1:5f:a0:9f:bc:79:b6:92:4c:eb:cd:70:7a:a4:3f:1e:
         bc:61:8b:0d:03:48:ab:87:49:1a:7d:05:37:48:c2:f3:e2:3c:
         eb:89:d7:0b:69:aa:8b:cf:0d:53:cf:5c:87:ce:4d:b2:a1:af:
         2b:17:f2:54:e2:9a:60:ae:26:83:d2:14:a6:39:85:ce:9b:72:
         b0:fc:6c:e9:8c:06:db:fe:b8:70:7e:39:c6:83:a2:10:96:26:
         67:c6:8c:87:1c:87:5d:92:16:25:03:79:5a:26:83:c0:df:1e:
         4b:d2:8f:7c:60:59:73:8c:b2:71:0e:62:c3:50:5b:5f:09:f0:
         15:6c:f4:69:1b:d9:9f:31:43:59:63:10:ec:38:3b:4b:0a:7b:
         d3:cf:35:fc:9c:ae:97:41:f3:ec:72:46:34:2d:26:48:f1:85:
         a8:5d:5e:d0:34:7c:68:da:45:bb:82:aa:56:d5:c7:6c:15:8c:
         84:d3:ef:30:82:08:b4:95:7e:01:e0:29:1c:e9:82:04:cc:f1:
         88:1d:c0:db
-----BEGIN CERTIFICATE-----
MIIDVDCCAjygAwIBAgIJAJCz6x4OyAPqMA0GCSqGSIb3DQEBCwUAMGoxCzAJBgNV
BAYTAmNuMQ4wDAYDVQQIDAVhbmh1aTEOMAwGA1UECgwFZXhzY3YxCzAJBgNVBAsM
AmNhMQ4wDAYDVQQDDAVhZG1pbjEeMBwGCSqGSIb3DQEJARYPYWRtaW5AZXhzY3Yu
Y29tMB4XDTE4MDgxMjA2NTgzOVoXDTI4MDgwOTA2NTgzOVowcDELMAkGA1UEBhMC
Y24xDjAMBgNVBAgMBWFuaHVpMQ4wDAYDVQQKDAVleHNjdjEPMA0GA1UECwwGY2xp
ZW50MQ8wDQYDVQQDDAZjbGllbnQxHzAdBgkqhkiG9w0BCQEWEGNsaWVudEBleHNj
di5jb20wgZ8wDQYJKoZIhvcNAQEBBQADgY0AMIGJAoGBAMc3m33mbzWD23MrfV4w
oTT5Z5cvRoo13Y9iNZFRqiVXUH9MXu4raS5rwhiVSQs2YhkJ6UJsgnYosM+CknY0
b3vD6Scsv4sVh5Qr3tX49SSFBVIm8aBebfCo+JRWQcAl2YOi/Ndj2X8GH1ATnFgI
Xb61FBzFBqWaLAXntIebZ4lvAgMBAAGjezB5MAkGA1UdEwQCMAAwLAYJYIZIAYb4
QgENBB8WHU9wZW5TU0wgR2VuZXJhdGVkIENlcnRpZmljYXRlMB0GA1UdDgQWBBQr
gU12XLFyVCf4dt9S+TxEg+petzAfBgNVHSMEGDAWgBRcWa5P8XlSlObf7BLlivGf
G17yRzANBgkqhkiG9w0BAQsFAAOCAQEAKx2o2k9wkNaQATFt/ug7GX8Mdc5rAJrb
velFdCMKcsFKePWp/dY+liEfZgm4IwZtXH+M9EdTgGzxX6CfvHm2kkzrzXB6pD8e
vGGLDQNIq4dJGn0FN0jC8+I864nXC2mqi88NU89ch85NsqGvKxfyVOKaYK4mg9IU
pjmFzptysPxs6YwG2/64cH45xoOiEJYmZ8aMhxyHXZIWJQN5WiaDwN8eS9KPfGBZ
c4yycQ5iw1BbXwnwFWz0aRvZnzFDWWMQ7Dg7Swp70881/Jyul0Hz7HJGNC0mSPGF
qF1e0DR8aNpFu4KqVtXHbBWMhNPvMIIItJV+AeApHOmCBMzxiB3A2w==
-----END CERTIFICATE-----
