Certificate:
    Data:
        Version: 3 (0x2)
        Serial Number: 10426936076622365675 (0x90b3eb1e0ec803eb)
    Signature Algorithm: sha256WithRSAEncryption
        Issuer: C=cn, ST=anhui, O=exscv, OU=ca, CN=admin/emailAddress=admin@exscv.com
        Validity
            Not Before: Aug 12 07:01:09 2018 GMT
            Not After : Aug  9 07:01:09 2028 GMT
        Subject: C=cn, ST=anhui, O=exscv, OU=server, CN=server/emailAddress=server@exscv.com
        Subject Public Key Info:
            Public Key Algorithm: rsaEncryption
                Public-Key: (1024 bit)
                Modulus:
                    00:c8:73:e2:e8:7e:32:72:6e:5c:9a:30:8c:14:bd:
                    35:7a:58:55:5c:5f:b6:0c:eb:10:0b:45:d6:3c:10:
                    85:3d:72:af:76:e8:23:14:75:0f:4a:12:82:d3:1b:
                    be:22:5c:82:95:7b:75:77:ad:16:b6:dc:c6:da:f6:
                    41:32:ca:7e:22:2f:d0:2b:cf:31:ec:ba:80:33:67:
                    b9:40:d3:f0:77:b5:c0:9c:5e:90:0a:c9:54:48:87:
                    58:6c:68:1b:e3:10:1a:cd:39:8a:88:7f:0d:26:c9:
                    3e:d2:ee:e2:7c:51:de:3d:67:21:cb:8a:e5:6b:41:
                    e0:7b:2c:99:14:8f:53:90:93
                Exponent: 65537 (0x10001)
        X509v3 extensions:
            X509v3 Basic Constraints: 
                CA:FALSE
            Netscape Comment: 
                OpenSSL Generated Certificate
            X509v3 Subject Key Identifier: 
                FC:6E:1D:97:34:C5:6D:B5:23:4E:0D:10:F9:92:5A:97:69:0C:86:37
            X509v3 Authority Key Identifier: 
                keyid:5C:59:AE:4F:F1:79:52:94:E6:DF:EC:12:E5:8A:F1:9F:1B:5E:F2:47

    Signature Algorithm: sha256WithRSAEncryption
         05:0d:87:df:d3:fe:98:64:6f:1a:b0:44:e4:8b:e4:51:9d:c0:
         a6:7b:9e:b1:a9:eb:1d:15:44:6e:f7:91:40:8f:87:bf:ba:50:
         b6:21:70:29:e8:2c:7c:50:4c:f1:a2:56:72:1d:f1:f5:88:04:
         ee:43:70:49:c0:91:c4:85:d0:f3:1c:10:cc:ec:44:c2:9a:85:
         e6:b0:c1:23:99:e7:ee:b4:33:d5:a6:b5:af:f7:46:18:6c:68:
         c0:66:c9:d3:2b:f9:3c:c5:c5:f2:30:3a:be:82:19:13:1c:0c:
         47:e7:d8:02:26:7a:c0:fb:83:16:f4:bd:2b:1e:ac:89:e2:40:
         ac:02:ef:59:01:e2:86:67:7f:a7:34:9f:a1:ef:6b:d9:77:0e:
         1b:83:7f:97:07:0f:ef:68:52:0a:97:61:4b:91:fa:d3:f2:11:
         23:2a:e9:04:66:d2:1e:bb:e0:29:b0:28:54:ca:8d:e0:1b:17:
         6a:58:8f:f9:02:53:db:0f:72:db:94:34:bc:1b:90:34:b0:97:
         5a:05:18:e6:fb:0e:60:7a:f4:b2:06:aa:05:a7:47:f4:b1:ae:
         a6:b2:8f:11:18:46:ca:04:54:8c:90:ea:fa:7a:d0:bd:68:91:
         63:7a:27:fc:d5:b6:33:68:ae:9e:95:cc:ed:b0:6f:cc:67:9b:
         8c:79:6c:91
-----BEGIN CERTIFICATE-----
MIIDVDCCAjygAwIBAgIJAJCz6x4OyAPrMA0GCSqGSIb3DQEBCwUAMGoxCzAJBgNV
BAYTAmNuMQ4wDAYDVQQIDAVhbmh1aTEOMAwGA1UECgwFZXhzY3YxCzAJBgNVBAsM
AmNhMQ4wDAYDVQQDDAVhZG1pbjEeMBwGCSqGSIb3DQEJARYPYWRtaW5AZXhzY3Yu
Y29tMB4XDTE4MDgxMjA3MDEwOVoXDTI4MDgwOTA3MDEwOVowcDELMAkGA1UEBhMC
Y24xDjAMBgNVBAgMBWFuaHVpMQ4wDAYDVQQKDAVleHNjdjEPMA0GA1UECwwGc2Vy
dmVyMQ8wDQYDVQQDDAZzZXJ2ZXIxHzAdBgkqhkiG9w0BCQEWEHNlcnZlckBleHNj
di5jb20wgZ8wDQYJKoZIhvcNAQEBBQADgY0AMIGJAoGBAMhz4uh+MnJuXJowjBS9
NXpYVVxftgzrEAtF1jwQhT1yr3boIxR1D0oSgtMbviJcgpV7dXetFrbcxtr2QTLK
fiIv0CvPMey6gDNnuUDT8He1wJxekArJVEiHWGxoG+MQGs05ioh/DSbJPtLu4nxR
3j1nIcuK5WtB4HssmRSPU5CTAgMBAAGjezB5MAkGA1UdEwQCMAAwLAYJYIZIAYb4
QgENBB8WHU9wZW5TU0wgR2VuZXJhdGVkIENlcnRpZmljYXRlMB0GA1UdDgQWBBT8
bh2XNMVttSNODRD5klqXaQyGNzAfBgNVHSMEGDAWgBRcWa5P8XlSlObf7BLlivGf
G17yRzANBgkqhkiG9w0BAQsFAAOCAQEABQ2H39P+mGRvGrBE5IvkUZ3Apnuesanr
HRVEbveRQI+Hv7pQtiFwKegsfFBM8aJWch3x9YgE7kNwScCRxIXQ8xwQzOxEwpqF
5rDBI5nn7rQz1aa1r/dGGGxowGbJ0yv5PMXF8jA6voIZExwMR+fYAiZ6wPuDFvS9
Kx6sieJArALvWQHihmd/pzSfoe9r2XcOG4N/lwcP72hSCpdhS5H60/IRIyrpBGbS
HrvgKbAoVMqN4BsXaliP+QJT2w9y25Q0vBuQNLCXWgUY5vsOYHr0sgaqBadH9LGu
prKPERhGygRUjJDq+nrQvWiRY3on/NW2M2iunpXM7bBvzGebjHlskQ==
-----END CERTIFICATE-----
